TN:
SF:/home/ch1la/ch1la-bmstu/workspace/projects/lab05/banking/Account.cpp
FNL:0,10,10
FNA:0,107,_ZNK7Account10GetBalanceEv
FNL:1,12,15
FNA:1,194,_ZN7Account13ChangeBalanceEi
FNL:2,17,20
FNA:2,242,_ZN7Account4LockEv
FNL:3,22,22
FNA:3,184,_ZN7Account6UnlockEv
FNL:4,5,6
FNA:4,359,_ZN7AccountC2Eii
FNL:5,8,8
FNA:5,0,_ZN7AccountD0Ev
FNA:5,359,_ZN7AccountD2Ev
FNF:6
FNH:6
DA:5,359
DA:6,359
DA:8,359
DA:10,107
DA:12,194
DA:13,194
DA:14,169
DA:15,169
DA:17,242
DA:18,242
DA:19,221
DA:20,221
DA:22,184
LF:13
LH:13
end_of_record
TN:
SF:/home/ch1la/ch1la-bmstu/workspace/projects/lab05/banking/Account.h
FNL:0,18,18
FNA:0,85,_ZNK7Account2idEv
FNF:1
FNH:1
DA:18,85
LF:1
LH:1
end_of_record
TN:
SF:/home/ch1la/ch1la-bmstu/workspace/projects/lab05/banking/Transaction.cpp
FNL:0,12,12
FNA:0,155,_ZN12_GLOBAL__N_15GuardC2ER7Account
FNL:1,14,14
FNA:1,154,_ZN12_GLOBAL__N_15GuardD2Ev
FNL:2,21,21
FNA:2,172,_ZN11TransactionC2Ev
FNL:3,23,23
FNA:3,0,_ZN11TransactionD0Ev
FNA:3,172,_ZN11TransactionD2Ev
FNL:4,25,44
FNA:4,142,_ZN11Transaction4MakeER7AccountS1_i
FNL:5,46,49
FNA:5,77,_ZN11Transaction6CreditER7Accounti
FNL:6,51,58
FNA:6,77,_ZN11Transaction5DebitER7Accounti
FNL:7,60,65
FNA:7,0,_ZN11Transaction14SaveToDataBaseER7AccountS1_i
FNF:8
FNH:7
DA:12,155
DA:14,154
DA:21,172
DA:23,172
DA:25,142
DA:26,142
DA:28,127
DA:30,112
DA:32,96
DA:34,78
DA:35,77
DA:37,77
DA:39,77
DA:40,77
DA:42,77
DA:43,77
DA:44,77
DA:46,77
DA:47,77
DA:48,77
DA:49,77
DA:51,77
DA:52,77
DA:53,77
DA:54,16
DA:55,16
DA:57,61
DA:60,0
DA:61,0
DA:62,0
DA:63,0
DA:64,0
DA:65,0
LF:33
LH:27
end_of_record
TN:
SF:/home/ch1la/ch1la-bmstu/workspace/projects/lab05/banking/Transaction.h
FNL:0,11,11
FNA:0,4,_ZNK11Transaction3feeEv
FNL:1,12,12
FNA:1,24,_ZN11Transaction7set_feeEi
FNF:2
FNH:2
DA:11,4
DA:12,24
LF:2
LH:2
end_of_record
TN:
SF:/home/ch1la/ch1la-bmstu/workspace/projects/lab05/tests/test_account.cpp
FNL:0,10,13
FNA:0,3,_ZN43Account_ChangeBalanceThrowsIfNotLocked_Test8TestBodyEv
FNA:0,3,_ZN43Account_ChangeBalanceThrowsIfNotLocked_TestC2Ev
FNL:1,15,23
FNA:1,3,_ZN39Account_ChangeBalanceWorksIfLocked_Test8TestBodyEv
FNA:1,3,_ZN39Account_ChangeBalanceWorksIfLocked_TestC2Ev
FNL:2,25,30
FNA:2,3,_ZN29Account_DoubleLockThrows_Test8TestBodyEv
FNA:2,3,_ZN29Account_DoubleLockThrows_TestC2Ev
FNL:3,32,40
FNA:3,3,_ZN24Account_UnlockWorks_Test8TestBodyEv
FNA:3,3,_ZN24Account_UnlockWorks_TestC2Ev
FNL:4,4,8
FNA:4,3,_ZN24Account_Constructor_Test8TestBodyEv
FNA:4,3,_ZN24Account_Constructor_TestC2Ev
FNL:5,42,46
FNA:5,3,_ZN40Account_ChangeBalanceThrowsDirectly_Test8TestBodyEv
FNA:5,3,_ZN40Account_ChangeBalanceThrowsDirectly_TestC2Ev
FNL:6,48,53
FNA:6,3,_ZN37Account_DoubleLockThrowsCoverage_Test8TestBodyEv
FNA:6,3,_ZN37Account_DoubleLockThrowsCoverage_TestC2Ev
FNL:7,55,59
FNA:7,3,_ZN47Account_ChangeBalanceUnlockedExceptionPath_Test8TestBodyEv
FNA:7,3,_ZN47Account_ChangeBalanceUnlockedExceptionPath_TestC2Ev
FNF:8
FNH:8
DA:4,6
DA:5,3
DA:6,3
DA:7,3
DA:8,3
DA:10,6
DA:11,3
DA:12,3
DA:13,3
DA:15,6
DA:16,3
DA:18,3
DA:19,3
DA:20,3
DA:22,3
DA:23,3
DA:25,6
DA:26,3
DA:28,3
DA:29,3
DA:30,3
DA:32,6
DA:33,3
DA:35,3
DA:36,3
DA:39,3
DA:40,3
DA:42,6
DA:43,3
DA:45,3
DA:46,3
DA:48,6
DA:49,3
DA:51,3
DA:52,3
DA:53,3
DA:55,6
DA:56,3
DA:58,3
DA:59,3
LF:40
LH:40
end_of_record
TN:
SF:/home/ch1la/ch1la-bmstu/workspace/projects/lab05/tests/test_transaction.cpp
FNL:0,109,118
FNA:0,2,_ZN34Transaction_FinalCoverageCase_Test8TestBodyEv
FNA:0,2,_ZN34Transaction_FinalCoverageCase_TestC2Ev
FNL:1,11,13
FNA:1,19,_ZN15MockTransaction14SaveToDataBaseER7AccountS1_i
FNL:2,120,131
FNA:2,2,_ZN38Transaction_FinalEdgeCaseCoverage_Test8TestBodyEv
FNA:2,2,_ZN38Transaction_FinalEdgeCaseCoverage_TestC2Ev
FNL:3,133,142
FNA:3,2,_ZN37Transaction_FeeEdgeExactBoundary_Test8TestBodyEv
FNA:3,2,_ZN37Transaction_FeeEdgeExactBoundary_TestC2Ev
FNL:4,144,153
FNA:4,2,_ZN44Transaction_FeeBoundaryZeroRollbackPath_Test8TestBodyEv
FNA:4,2,_ZN44Transaction_FeeBoundaryZeroRollbackPath_TestC2Ev
FNL:5,155,163
FNA:5,2,_ZN40Transaction_FinalGuaranteedCoverage_Test8TestBodyEv
FNA:5,2,_ZN40Transaction_FinalGuaranteedCoverage_TestC2Ev
FNL:6,16,19
FNA:6,2,_ZN27Transaction_DefaultFee_Test8TestBodyEv
FNA:6,2,_ZN27Transaction_DefaultFee_TestC2Ev
FNL:7,21,25
FNA:7,2,_ZN23Transaction_SetFee_Test8TestBodyEv
FNA:7,2,_ZN23Transaction_SetFee_TestC2Ev
FNL:8,27,32
FNA:8,2,_ZN34Transaction_SameAccountThrows_Test8TestBodyEv
FNA:8,2,_ZN34Transaction_SameAccountThrows_TestC2Ev
FNL:9,34,39
FNA:9,2,_ZN34Transaction_NegativeSumThrows_Test8TestBodyEv
FNA:9,2,_ZN34Transaction_NegativeSumThrows_TestC2Ev
FNL:10,41,46
FNA:10,2,_ZN34Transaction_TooSmallSumThrows_Test8TestBodyEv
FNA:10,2,_ZN34Transaction_TooSmallSumThrows_TestC2Ev
FNL:11,48,55
FNA:11,2,_ZN38Transaction_FeeTooBigReturnsFalse_Test8TestBodyEv
FNA:11,2,_ZN38Transaction_FeeTooBigReturnsFalse_TestC2Ev
FNL:12,57,65
FNA:12,2,_ZN32Transaction_SuccessTransfer_Test8TestBodyEv
FNA:12,2,_ZN32Transaction_SuccessTransfer_TestC2Ev
FNL:13,67,75
FNA:13,2,_ZN32Transaction_DebitFailBranch_Test8TestBodyEv
FNA:13,2,_ZN32Transaction_DebitFailBranch_TestC2Ev
FNL:14,77,85
FNA:14,2,_ZN35Transaction_DebitFalseRollback_Test8TestBodyEv
FNA:14,2,_ZN35Transaction_DebitFalseRollback_TestC2Ev
FNL:15,87,96
FNA:15,2,_ZN46Transaction_FullRollbackAndUnlockCoverage_Test8TestBodyEv
FNA:15,2,_ZN46Transaction_FullRollbackAndUnlockCoverage_TestC2Ev
FNL:16,98,107
FNA:16,2,_ZN33Transaction_FullRollbackCase_Test8TestBodyEv
FNA:16,2,_ZN33Transaction_FullRollbackCase_TestC2Ev
FNF:17
FNH:17
DA:11,19
DA:12,19
DA:13,19
DA:16,4
DA:17,2
DA:18,2
DA:19,2
DA:21,4
DA:22,2
DA:23,2
DA:24,2
DA:25,2
DA:27,4
DA:28,2
DA:29,2
DA:31,2
DA:32,2
DA:34,4
DA:35,2
DA:36,2
DA:38,2
DA:39,2
DA:41,4
DA:42,2
DA:43,2
DA:45,2
DA:46,2
DA:48,4
DA:49,2
DA:50,2
DA:52,2
DA:54,2
DA:55,2
DA:57,4
DA:58,2
DA:59,2
DA:61,2
DA:63,2
DA:64,2
DA:65,2
DA:67,4
DA:68,2
DA:69,2
DA:71,2
DA:73,2
DA:74,2
DA:75,2
DA:77,4
DA:78,2
DA:79,2
DA:81,2
DA:83,2
DA:84,2
DA:85,2
DA:87,4
DA:88,2
DA:89,2
DA:91,2
DA:93,2
DA:95,2
DA:96,2
DA:98,4
DA:99,2
DA:100,2
DA:102,2
DA:104,2
DA:106,2
DA:107,2
DA:109,4
DA:110,2
DA:111,2
DA:113,2
DA:115,2
DA:117,2
DA:118,2
DA:120,4
DA:121,2
DA:122,2
DA:124,2
DA:128,2
DA:130,2
DA:131,2
DA:133,4
DA:134,2
DA:135,2
DA:137,2
DA:139,2
DA:141,2
DA:142,2
DA:144,4
DA:145,2
DA:146,2
DA:148,2
DA:150,2
DA:152,2
DA:153,2
DA:155,4
DA:156,2
DA:157,2
DA:159,2
DA:161,2
DA:162,1
DA:163,4
LF:103
LH:103
end_of_record
